target datalayout = "e-m:e-p270:32:32-p271:32:32-p272:64:64-i64:64-i128:128-f80:128-n8:16:32:64-S128"
target triple = "x86_64-pc-linux-gnu"

%struct._object = type { %union.anon, ptr }
%union.anon = type { i64 }
%struct.anon = type { i32, i32 }
%struct.module_state = type { i32, ptr }
%struct.XIBufferViewObject = type { %struct._object, ptr, i64 }
%struct._xidata = type { ptr, ptr, i64, ptr, ptr }

@.str = private unnamed_addr constant [14 x i8] c"_interpreters\00", align 1
@PyExc_RuntimeError = external global ptr, align 8
@.str.108 = private unnamed_addr constant [38 x i8] c"_interpreters module not imported yet\00", align 1

; Function Attrs: alwaysinline nounwind uwtable
define internal i32 @_Py_IsImmortal(ptr noundef %0) #4 {
  %2 = alloca ptr, align 8
  store ptr %0, ptr %2, align 8, !tbaa !3
  %3 = load ptr, ptr %2, align 8, !tbaa !3
  %4 = getelementptr inbounds nuw %struct._object, ptr %3, i32 0, i32 0
  %5 = getelementptr inbounds nuw %struct.anon, ptr %4, i32 0, i32 0
  %6 = load i32, ptr %5, align 8, !tbaa !38
  %7 = icmp slt i32 %6, 0
  %8 = zext i1 %7 to i32
  ret i32 %8
}

; Function Attrs: alwaysinline nounwind uwtable
define internal void @Py_DECREF(ptr noundef %0) #4 {
  %2 = alloca ptr, align 8
  store ptr %0, ptr %2, align 8, !tbaa !3
  %3 = load ptr, ptr %2, align 8, !tbaa !3
  %4 = call i32 @_Py_IsImmortal(ptr noundef %3)
  %5 = icmp ne i32 %4, 0
  br i1 %5, label %6, label %7

6:                                                ; preds = %1
  br label %16

7:                                                ; preds = %1
  %8 = load ptr, ptr %2, align 8, !tbaa !3
  %9 = getelementptr inbounds nuw %struct._object, ptr %8, i32 0, i32 0
  %10 = getelementptr inbounds nuw %struct.anon, ptr %9, i32 0, i32 0
  %11 = load i32, ptr %10, align 8, !tbaa !38
  %12 = add i32 %11, -1
  store i32 %12, ptr %10, align 8, !tbaa !38
  %13 = icmp eq i32 %12, 0
  br i1 %13, label %14, label %16

14:                                               ; preds = %7
  %15 = load ptr, ptr %2, align 8, !tbaa !3
  call void @_Py_Dealloc(ptr noundef %15)
  br label %16

16:                                               ; preds = %6, %14, %7
  ret void
}

; Function Attrs: inlinehint nounwind uwtable
define internal ptr @get_module_state(ptr noundef %0) #3 {
  %2 = alloca ptr, align 8
  %3 = alloca ptr, align 8
  store ptr %0, ptr %2, align 8, !tbaa !3
  call void @llvm.lifetime.start.p0(i64 8, ptr %3) #8
  %4 = load ptr, ptr %2, align 8, !tbaa !3
  %5 = call ptr @PyModule_GetState(ptr noundef %4)
  store ptr %5, ptr %3, align 8, !tbaa !8
  %6 = load ptr, ptr %3, align 8, !tbaa !8
  call void @llvm.lifetime.end.p0(i64 8, ptr %3) #8
  ret ptr %6
}

; Function Attrs: nounwind uwtable
define internal ptr @_get_current_module() #0 {
  %1 = alloca ptr, align 8
  %2 = alloca ptr, align 8
  %3 = alloca i32, align 4
  %4 = alloca ptr, align 8
  call void @llvm.lifetime.start.p0(i64 8, ptr %2) #8
  %5 = call ptr @PyUnicode_FromString(ptr noundef @.str)
  store ptr %5, ptr %2, align 8, !tbaa !3
  %6 = load ptr, ptr %2, align 8, !tbaa !3
  %7 = icmp eq ptr %6, null
  br i1 %7, label %8, label %9

8:                                                ; preds = %0
  store ptr null, ptr %1, align 8
  store i32 1, ptr %3, align 4
  br label %19

9:                                                ; preds = %0
  call void @llvm.lifetime.start.p0(i64 8, ptr %4) #8
  %10 = load ptr, ptr %2, align 8, !tbaa !3
  %11 = call ptr @PyImport_GetModule(ptr noundef %10)
  store ptr %11, ptr %4, align 8, !tbaa !3
  %12 = load ptr, ptr %2, align 8, !tbaa !3
  call void @Py_DECREF(ptr noundef %12)
  %13 = load ptr, ptr %4, align 8, !tbaa !3
  %14 = icmp eq ptr %13, null
  br i1 %14, label %15, label %16

15:                                               ; preds = %9
  store ptr null, ptr %1, align 8
  store i32 1, ptr %3, align 4
  br label %18

16:                                               ; preds = %9
  %17 = load ptr, ptr %4, align 8, !tbaa !3
  store ptr %17, ptr %1, align 8
  store i32 1, ptr %3, align 4
  br label %18

18:                                               ; preds = %16, %15
  call void @llvm.lifetime.end.p0(i64 8, ptr %4) #8
  br label %19

19:                                               ; preds = %18, %8
  call void @llvm.lifetime.end.p0(i64 8, ptr %2) #8
  %20 = load ptr, ptr %1, align 8
  ret ptr %20
}

; Function Attrs: nounwind uwtable
define internal ptr @_get_current_module_state() #0 {
  %1 = alloca ptr, align 8
  %2 = alloca ptr, align 8
  %3 = alloca i32, align 4
  %4 = alloca ptr, align 8
  call void @llvm.lifetime.start.p0(i64 8, ptr %2) #8
  %5 = call ptr @_get_current_module()
  store ptr %5, ptr %2, align 8, !tbaa !3
  %6 = load ptr, ptr %2, align 8, !tbaa !3
  %7 = icmp eq ptr %6, null
  br i1 %7, label %8, label %10

8:                                                ; preds = %0
  %9 = load ptr, ptr @PyExc_RuntimeError, align 8, !tbaa !3
  call void @PyErr_SetString(ptr noundef %9, ptr noundef @.str.108)
  store ptr null, ptr %1, align 8
  store i32 1, ptr %3, align 4
  br label %15

10:                                               ; preds = %0
  call void @llvm.lifetime.start.p0(i64 8, ptr %4) #8
  %11 = load ptr, ptr %2, align 8, !tbaa !3
  %12 = call ptr @get_module_state(ptr noundef %11)
  store ptr %12, ptr %4, align 8, !tbaa !8
  %13 = load ptr, ptr %2, align 8, !tbaa !3
  call void @Py_DECREF(ptr noundef %13)
  %14 = load ptr, ptr %4, align 8, !tbaa !8
  store ptr %14, ptr %1, align 8
  store i32 1, ptr %3, align 4
  call void @llvm.lifetime.end.p0(i64 8, ptr %4) #8
  br label %15

15:                                               ; preds = %10, %8
  call void @llvm.lifetime.end.p0(i64 8, ptr %2) #8
  %16 = load ptr, ptr %1, align 8
  ret ptr %16
}

; Function Attrs: nounwind uwtable
define internal ptr @xibufferview_from_xid(ptr noundef %0, ptr noundef %1) #0 {
  %3 = alloca ptr, align 8
  %4 = alloca ptr, align 8
  %5 = alloca ptr, align 8
  %6 = alloca ptr, align 8
  %7 = alloca i32, align 4
  store ptr %0, ptr %4, align 8, !tbaa !39
  store ptr %1, ptr %5, align 8, !tbaa !234
  call void @llvm.lifetime.start.p0(i64 8, ptr %6) #8
  %8 = call ptr @PyObject_Malloc(i64 noundef 32)
  store ptr %8, ptr %6, align 8, !tbaa !8
  %9 = load ptr, ptr %6, align 8, !tbaa !8
  %10 = icmp eq ptr %9, null
  br i1 %10, label %11, label %12

11:                                               ; preds = %2
  store ptr null, ptr %3, align 8
  store i32 1, ptr %7, align 4
  br label %27

12:                                               ; preds = %2
  %13 = load ptr, ptr %6, align 8, !tbaa !8
  %14 = load ptr, ptr %4, align 8, !tbaa !39
  %15 = call ptr @PyObject_Init(ptr noundef %13, ptr noundef %14)
  %16 = load ptr, ptr %5, align 8, !tbaa !234
  %17 = getelementptr inbounds nuw %struct._xidata, ptr %16, i32 0, i32 0
  %18 = load ptr, ptr %17, align 8, !tbaa !247
  %19 = load ptr, ptr %6, align 8, !tbaa !8
  %20 = getelementptr inbounds nuw %struct.XIBufferViewObject, ptr %19, i32 0, i32 1
  store ptr %18, ptr %20, align 8, !tbaa !239
  %21 = load ptr, ptr %5, align 8, !tbaa !234
  %22 = getelementptr inbounds nuw %struct._xidata, ptr %21, i32 0, i32 2
  %23 = load i64, ptr %22, align 8, !tbaa !249
  %24 = load ptr, ptr %6, align 8, !tbaa !8
  %25 = getelementptr inbounds nuw %struct.XIBufferViewObject, ptr %24, i32 0, i32 2
  store i64 %23, ptr %25, align 8, !tbaa !237
  %26 = load ptr, ptr %6, align 8, !tbaa !8
  store ptr %26, ptr %3, align 8
  store i32 1, ptr %7, align 4
  br label %27

27:                                               ; preds = %12, %11
  call void @llvm.lifetime.end.p0(i64 8, ptr %6) #8
  %28 = load ptr, ptr %3, align 8
  ret ptr %28
}

; Function Attrs: nounwind uwtable
define internal ptr @_get_current_xibufferview_type() #0 {
  %1 = alloca ptr, align 8
  %2 = alloca ptr, align 8
  %3 = alloca i32, align 4
  call void @llvm.lifetime.start.p0(i64 8, ptr %2) #8
  %4 = call ptr @_get_current_module_state()
  store ptr %4, ptr %2, align 8, !tbaa !8
  %5 = load ptr, ptr %2, align 8, !tbaa !8
  %6 = icmp eq ptr %5, null
  br i1 %6, label %7, label %8

7:                                                ; preds = %0
  store ptr null, ptr %1, align 8
  store i32 1, ptr %3, align 4
  br label %12

8:                                                ; preds = %0
  %9 = load ptr, ptr %2, align 8, !tbaa !8
  %10 = getelementptr inbounds nuw %struct.module_state, ptr %9, i32 0, i32 1
  %11 = load ptr, ptr %10, align 8, !tbaa !245
  store ptr %11, ptr %1, align 8
  store i32 1, ptr %3, align 4
  br label %12

12:                                               ; preds = %8, %7
  call void @llvm.lifetime.end.p0(i64 8, ptr %2) #8
  %13 = load ptr, ptr %1, align 8
  ret ptr %13
}

; Function Attrs: nounwind uwtable
define internal ptr @_memoryview_from_xid(ptr noundef %0) #0 {
  %2 = alloca ptr, align 8
  %3 = alloca ptr, align 8
  %4 = alloca ptr, align 8
  %5 = alloca i32, align 4
  %6 = alloca ptr, align 8
  store ptr %0, ptr %3, align 8, !tbaa !234
  call void @llvm.lifetime.start.p0(i64 8, ptr %4) #8
  %7 = call ptr @_get_current_xibufferview_type()
  store ptr %7, ptr %4, align 8, !tbaa !39
  %8 = load ptr, ptr %4, align 8, !tbaa !39
  %9 = icmp eq ptr %8, null
  br i1 %9, label %10, label %11

10:                                               ; preds = %1
  store ptr null, ptr %2, align 8
  store i32 1, ptr %5, align 4
  br label %22

11:                                               ; preds = %1
  call void @llvm.lifetime.start.p0(i64 8, ptr %6) #8
  %12 = load ptr, ptr %4, align 8, !tbaa !39
  %13 = load ptr, ptr %3, align 8, !tbaa !234
  %14 = call ptr @xibufferview_from_xid(ptr noundef %12, ptr noundef %13)
  store ptr %14, ptr %6, align 8, !tbaa !3
  %15 = load ptr, ptr %6, align 8, !tbaa !3
  %16 = icmp eq ptr %15, null
  br i1 %16, label %17, label %18

17:                                               ; preds = %11
  store ptr null, ptr %2, align 8
  store i32 1, ptr %5, align 4
  br label %21

18:                                               ; preds = %11
  %19 = load ptr, ptr %6, align 8, !tbaa !3
  %20 = call ptr @PyMemoryView_FromObject(ptr noundef %19)
  store ptr %20, ptr %2, align 8
  store i32 1, ptr %5, align 4
  br label %21

21:                                               ; preds = %18, %17
  call void @llvm.lifetime.end.p0(i64 8, ptr %6) #8
  br label %22

22:                                               ; preds = %21, %10
  call void @llvm.lifetime.end.p0(i64 8, ptr %4) #8
  %23 = load ptr, ptr %2, align 8
  ret ptr %23
}