; Function Attrs: nounwind uwtable
define internal ptr @_memoryview_from_xid(ptr noundef readonly captures(none) %0) #0 {
  %2 = tail call ptr @PyUnicode_FromString(ptr noundef nonnull @.str) #7
  %3 = icmp eq ptr %2, null
  br i1 %3, label %_get_current_module_state.exit.thread.i, label %4

4:                                                ; preds = %1
  %5 = tail call ptr @PyImport_GetModule(ptr noundef nonnull %2) #7
  %6 = load i32, ptr %2, align 8, !tbaa !11
  %.not.i.i.i.i = icmp sgt i32 %6, -1
  br i1 %.not.i.i.i.i, label %7, label %_get_current_module.exit.i.i

7:                                                ; preds = %4
  %8 = add nsw i32 %6, -1
  store i32 %8, ptr %2, align 8, !tbaa !11
  %9 = icmp eq i32 %8, 0
  br i1 %9, label %10, label %_get_current_module.exit.i.i

10:                                               ; preds = %7
  tail call void @_Py_Dealloc(ptr noundef nonnull %2) #7
  br label %_get_current_module.exit.i.i

_get_current_module.exit.i.i:                     ; preds = %10, %7, %4
  %11 = icmp eq ptr %5, null
  br i1 %11, label %_get_current_module_state.exit.thread.i, label %13

_get_current_module_state.exit.thread.i:          ; preds = %_get_current_module.exit.i.i, %1
  %12 = load ptr, ptr @PyExc_RuntimeError, align 8, !tbaa !15
  tail call void @PyErr_SetString(ptr noundef %12, ptr noundef nonnull @.str.108) #7
  br label %_get_current_xibufferview_type.exit.thread

13:                                               ; preds = %_get_current_module.exit.i.i
  %14 = tail call ptr @PyModule_GetState(ptr noundef nonnull %5) #7
  %15 = load i32, ptr %5, align 8, !tbaa !11
  %.not.i.i.i = icmp sgt i32 %15, -1
  br i1 %.not.i.i.i, label %16, label %_get_current_module_state.exit.i

16:                                               ; preds = %13
  %17 = add nsw i32 %15, -1
  store i32 %17, ptr %5, align 8, !tbaa !11
  %18 = icmp eq i32 %17, 0
  br i1 %18, label %19, label %_get_current_module_state.exit.i

19:                                               ; preds = %16
  tail call void @_Py_Dealloc(ptr noundef nonnull %5) #7
  br label %_get_current_module_state.exit.i

_get_current_module_state.exit.i:                 ; preds = %19, %16, %13
  %20 = icmp eq ptr %14, null
  br i1 %20, label %_get_current_xibufferview_type.exit.thread, label %_get_current_xibufferview_type.exit

_get_current_xibufferview_type.exit:              ; preds = %_get_current_module_state.exit.i
  %21 = getelementptr inbounds nuw i8, ptr %14, i64 8
  %22 = load ptr, ptr %21, align 8, !tbaa !3
  %23 = icmp eq ptr %22, null
  br i1 %23, label %_get_current_xibufferview_type.exit.thread, label %24

24:                                               ; preds = %_get_current_xibufferview_type.exit
  %25 = tail call ptr @PyObject_Malloc(i64 noundef 32) #7
  %26 = icmp eq ptr %25, null
  br i1 %26, label %_get_current_xibufferview_type.exit.thread, label %27

27:                                               ; preds = %24
  %28 = tail call ptr @PyObject_Init(ptr noundef nonnull %25, ptr noundef nonnull %22) #7
  %29 = load ptr, ptr %0, align 8, !tbaa !228
  %30 = getelementptr inbounds nuw i8, ptr %25, i64 16
  store ptr %29, ptr %30, align 8, !tbaa !219
  %31 = getelementptr inbounds nuw i8, ptr %0, i64 16
  %32 = load i64, ptr %31, align 8, !tbaa !230
  %33 = getelementptr inbounds nuw i8, ptr %25, i64 24
  store i64 %32, ptr %33, align 8, !tbaa !217
  %34 = tail call ptr @PyMemoryView_FromObject(ptr noundef nonnull %25) #7
  br label %_get_current_xibufferview_type.exit.thread

_get_current_xibufferview_type.exit.thread:       ; preds = %24, %_get_current_module_state.exit.thread.i, %_get_current_module_state.exit.i, %27, %_get_current_xibufferview_type.exit
  %.0 = phi ptr [ null, %_get_current_xibufferview_type.exit ], [ %34, %27 ], [ null, %_get_current_module_state.exit.i ], [ null, %_get_current_module_state.exit.thread.i ], [ null, %24 ]
  ret ptr %.0
}